(dp1
S'modified_by'
p2
S'INTEGER REFERENCES auth_user(id) ON DELETE CASCADE'
p3
sS'title'
p4
S'VARCHAR(512)'
p5
sS'is_active'
p6
S'CHAR(1)'
p7
sS'created_by'
p8
S'INTEGER REFERENCES auth_user(id) ON DELETE CASCADE'
p9
sS'id'
p10
S'SERIAL PRIMARY KEY'
p11
sS'created_on'
p12
S'TIMESTAMP'
p13
sS'modified_on'
p14
S'TIMESTAMP'
p15
sS'actualizado'
p16
S'TIMESTAMP'
p17
sS'slug'
p18
S'VARCHAR(512)'
p19
s.