(dp1
S'categoria'
p2
S'INTEGER REFERENCES categoria(id) ON DELETE CASCADE'
p3
sS'modified_by'
p4
S'INTEGER REFERENCES auth_user(id) ON DELETE CASCADE'
p5
sS'title'
p6
S'VARCHAR(512)'
p7
sS'is_active'
p8
S'CHAR(1)'
p9
sS'created_by'
p10
S'INTEGER REFERENCES auth_user(id) ON DELETE CASCADE'
p11
sS'created_on'
p12
S'TIMESTAMP'
p13
sS'link'
p14
S'VARCHAR(512)'
p15
sS'modified_on'
p16
S'TIMESTAMP'
p17
sS'id'
p18
S'SERIAL PRIMARY KEY'
p19
s.